; Function Attrs: nounwind uwtable
define ptr @l_Lean_Syntax_getId___boxed(ptr noundef %0) local_unnamed_addr #0 {
  %2 = ptrtoint ptr %0 to i64
  %3 = and i64 %2, 1
  %.not.i.i = icmp eq i64 %3, 0
  br i1 %.not.i.i, label %7, label %4

4:                                                ; preds = %1
  %5 = lshr i64 %2, 1
  %6 = trunc i64 %5 to i32
  br label %lean_obj_tag.exit.i

7:                                                ; preds = %1
  %8 = getelementptr i8, ptr %0, i64 4
  %.val.i.i = load i32, ptr %8, align 4
  %9 = lshr i32 %.val.i.i, 24
  br label %lean_obj_tag.exit.i

lean_obj_tag.exit.i:                              ; preds = %7, %4
  %.0.i.i = phi i32 [ %6, %4 ], [ %9, %7 ]
  %10 = icmp eq i32 %.0.i.i, 3
  br i1 %10, label %11, label %l_Lean_Syntax_getId.exit

11:                                               ; preds = %lean_obj_tag.exit.i
  %12 = getelementptr inbounds nuw i8, ptr %0, i64 24
  %13 = load ptr, ptr %12, align 8, !tbaa !10
  %14 = ptrtoint ptr %13 to i64
  %15 = and i64 %14, 1
  %.not.i3 = icmp eq i64 %15, 0
  br i1 %.not.i3, label %16, label %l_Lean_Syntax_getId.exit

16:                                               ; preds = %11
  %.val.i6.i = load i32, ptr %13, align 4, !tbaa !4
  %17 = icmp sgt i32 %.val.i6.i, 0
  br i1 %17, label %18, label %20, !prof !9

18:                                               ; preds = %16
  %19 = add nuw i32 %.val.i6.i, 1
  store i32 %19, ptr %13, align 4, !tbaa !4
  br label %l_Lean_Syntax_getId.exit

20:                                               ; preds = %16
  %.not.i7.i = icmp eq i32 %.val.i6.i, 0
  br i1 %.not.i7.i, label %l_Lean_Syntax_getId.exit, label %21

21:                                               ; preds = %20
  tail call void @lean_inc_ref_cold(ptr noundef nonnull %13) #11
  br label %l_Lean_Syntax_getId.exit

l_Lean_Syntax_getId.exit:                         ; preds = %lean_obj_tag.exit.i, %11, %18, %20, %21
  %.0.i = phi ptr [ %13, %21 ], [ %13, %20 ], [ %13, %18 ], [ %13, %11 ], [ inttoptr (i64 1 to ptr), %lean_obj_tag.exit.i ]
  br i1 %.not.i.i, label %22, label %lean_dec.exit

22:                                               ; preds = %l_Lean_Syntax_getId.exit
  %23 = load i32, ptr %0, align 4, !tbaa !4
  %24 = icmp sgt i32 %23, 1
  br i1 %24, label %25, label %27, !prof !9

25:                                               ; preds = %22
  %26 = add nsw i32 %23, -1
  store i32 %26, ptr %0, align 4, !tbaa !4
  br label %lean_dec.exit

27:                                               ; preds = %22
  %.not.i = icmp eq i32 %23, 0
  br i1 %.not.i, label %lean_dec.exit, label %28

28:                                               ; preds = %27
  tail call void @lean_dec_ref_cold(ptr noundef nonnull %0) #11
  br label %lean_dec.exit

lean_dec.exit:                                    ; preds = %28, %27, %25, %l_Lean_Syntax_getId.exit
  ret ptr %.0.i
}